target datalayout = "e-m:e-p270:32:32-p271:32:32-p272:64:64-i64:64-i128:128-f80:128-n8:16:32:64-S128"
target triple = "x86_64-pc-linux-gnu"

%struct.sbcast_cred_arg_t = type { i32, i32, i32, ptr, i64, ptr }
%struct.sbcast_cred = type { i64, %struct.sbcast_cred_arg_t, ptr, ptr, i8 }

; Function Attrs: nounwind uwtable
define dso_local void @pack_sbcast_cred(ptr noundef %0, ptr noundef %1, i16 noundef zeroext %2) #0 {
  %4 = alloca ptr, align 8
  %5 = alloca ptr, align 8
  %6 = alloca i16, align 2
  %7 = alloca i32, align 4
  store ptr %0, ptr %4, align 8
  store ptr %1, ptr %5, align 8
  store i16 %2, ptr %6, align 2
  %8 = load ptr, ptr %4, align 8
  %9 = getelementptr inbounds nuw %struct.sbcast_cred, ptr %8, i32 0, i32 2
  %10 = load ptr, ptr %9, align 8
  %11 = icmp ne ptr %10, null
  br i1 %11, label %12, label %17

12:                                               ; preds = %3
  %13 = load ptr, ptr %4, align 8
  %14 = getelementptr inbounds nuw %struct.sbcast_cred, ptr %13, i32 0, i32 2
  %15 = load ptr, ptr %14, align 8
  %16 = load ptr, ptr %5, align 8
  call void @packbuf(ptr noundef %15, ptr noundef %16)
  br label %37

17:                                               ; preds = %3
  br label %18

18:                                               ; preds = %17
  call void @llvm.lifetime.start.p0(i64 4, ptr %7) #9
  store i32 0, ptr %7, align 4
  %19 = load ptr, ptr %4, align 8
  %20 = getelementptr inbounds nuw %struct.sbcast_cred, ptr %19, i32 0, i32 3
  %21 = load ptr, ptr %20, align 8
  %22 = icmp ne ptr %21, null
  br i1 %22, label %23, label %30

23:                                               ; preds = %18
  %24 = load ptr, ptr %4, align 8
  %25 = getelementptr inbounds nuw %struct.sbcast_cred, ptr %24, i32 0, i32 3
  %26 = load ptr, ptr %25, align 8
  %27 = call i64 @strlen(ptr noundef %26) #10
  %28 = trunc i64 %27 to i32
  %29 = add i32 %28, 1
  store i32 %29, ptr %7, align 4
  br label %30

30:                                               ; preds = %23, %18
  %31 = load ptr, ptr %4, align 8
  %32 = getelementptr inbounds nuw %struct.sbcast_cred, ptr %31, i32 0, i32 3
  %33 = load ptr, ptr %32, align 8
  %34 = load i32, ptr %7, align 4
  %35 = load ptr, ptr %5, align 8
  call void @packmem(ptr noundef %33, i32 noundef %34, ptr noundef %35)
  call void @llvm.lifetime.end.p0(i64 4, ptr %7) #9
  br label %36

36:                                               ; preds = %30
  br label %37

37:                                               ; preds = %36, %12
  ret void
}