; Function Attrs: nounwind uwtable
define dso_local void @pack_sbcast_cred(ptr noundef readonly captures(none) %0, ptr noundef %1, i16 noundef zeroext %2) local_unnamed_addr #0 {
  %4 = getelementptr inbounds nuw i8, ptr %0, i64 48
  %5 = load ptr, ptr %4, align 8
  %.not = icmp eq ptr %5, null
  br i1 %.not, label %7, label %6

6:                                                ; preds = %3
  tail call void @packbuf(ptr noundef nonnull %5, ptr noundef %1) #11
  br label %15

7:                                                ; preds = %3
  %8 = getelementptr inbounds nuw i8, ptr %0, i64 56
  %9 = load ptr, ptr %8, align 8
  %.not9 = icmp eq ptr %9, null
  br i1 %.not9, label %14, label %10

10:                                               ; preds = %7
  %11 = tail call i64 @strlen(ptr noundef nonnull dereferenceable(1) %9) #14
  %12 = trunc i64 %11 to i32
  %13 = add i32 %12, 1
  br label %14

14:                                               ; preds = %10, %7
  %.0 = phi i32 [ %13, %10 ], [ 0, %7 ]
  tail call void @packmem(ptr noundef %9, i32 noundef %.0, ptr noundef %1) #11
  br label %15

15:                                               ; preds = %14, %6
  ret void
}